(dp1
I101123
(lp2
VGerald Green
p3
aV14
p4
aI1610612748
aVF
asI201609
(lp5
VGoran Dragic
p6
aV7
aI1610612748
aVG
asI2571
(lp7
VLeandro Barbosa
p8
aV19
p9
aI1610612744
aVG
asI203546
(lp10
VIan Clark
p11
aV21
p12
aI1610612744
aVG
asI2733
(lp13
VShaun Livingston
p14
aV34
p15
aI1610612744
aVG
asI1626159
(lp16
VJustise Winslow
p17
aV20
p18
aI1610612748
aVF
asI2736
(lp19
VLuol Deng
p20
aV9
aI1610612748
aVF
asI2738
(lp21
VAndre Iguodala
p22
aV9
aI1610612744
aVG-F
p23
asI202355
(lp24
VHassan Whiteside
p25
aV21
p26
aI1610612748
aVC
asI204020
(lp27
VTyler Johnson
p28
aV8
aI1610612748
aVG
asI2365
(lp29
VChris Andersen
p30
aV11
p31
aI1610612748
aVF-C
p32
asI202691
(lp33
VKlay Thompson
p34
aV11
p35
aI1610612744
aVG
asI2757
(lp36
VBeno Udrih
p37
aV19
p38
aI1610612748
aVG
asI203084
(lp39
VHarrison Barnes
p40
aV40
p41
aI1610612744
aVF
asI201939
(lp42
VStephen Curry
p43
aV30
p44
aI1610612744
aVG
asI1626196
(lp45
VJosh Richardson
p46
aV0
aI1610612748
aVG
asI2617
(lp47
VUdonis Haslem
p48
aV40
p49
aI1610612748
aVF
asI2405
(lp50
VAmar'e Stoudemire
p51
aV5
aI1610612748
aVF-C
p52
asI203105
(lp53
VFestus Ezeli
p54
aV31
p55
aI1610612744
aVC
asI201574
(lp56
VJason Thompson
p57
aV1
aI1610612744
aVF-C
p58
asI203110
(lp59
VDraymond Green
p60
aV23
p61
aI1610612744
aVF
asI201575
(lp62
VBrandon Rush
p63
aV4
aI1610612744
aVF-G
p64
asI201578
(lp65
VMarreese Speights
p66
aV5
aI1610612744
aVF-C
p67
asI101106
(lp68
VAndrew Bogut
p69
aV12
p70
aI1610612744
aVC
asI2547
(lp71
VChris Bosh
p72
aV1
aI1610612748
aVF
asI2548
(lp73
VDwyane Wade
p74
aV3
aI1610612748
aVG
asI-1
(lp75
S'ball'
p76
aI-1
aI-1
aI-1
as.