(dp1
S'2617'
p2
(lp3
VUdonis Haslem
p4
aS'40'
p5
aS'1610612748'
p6
aVF
asS'2736'
p7
(lp8
VLuol Deng
p9
aS'9'
aS'1610612748'
p10
aVF
asS'203110'
p11
(lp12
VDraymond Green
p13
aS'23'
p14
aS'1610612744'
p15
aVF
asS'2733'
p16
(lp17
VShaun Livingston
p18
aS'34'
p19
aS'1610612744'
p20
aVG
asS'204020'
p21
(lp22
VTyler Johnson
p23
aS'8'
aS'1610612748'
p24
aVG
asS'2738'
p25
(lp26
VAndre Iguodala
p27
aS'9'
aS'1610612744'
p28
aVG-F
p29
asS'201939'
p30
(lp31
VStephen Curry
p32
aS'30'
p33
aS'1610612744'
p34
aVG
asS'201609'
p35
(lp36
VGoran Dragic
p37
aS'7'
aS'1610612748'
p38
aVG
asS'1626196'
p39
(lp40
VJosh Richardson
p41
aS'0'
aS'1610612748'
p42
aVG
asS'2547'
p43
(lp44
VChris Bosh
p45
aS'1'
aS'1610612748'
p46
aVF
asS'2548'
p47
(lp48
VDwyane Wade
p49
aS'3'
aS'1610612748'
p50
aVG
asS'2405'
p51
(lp52
VAmar'e Stoudemire
p53
aS'5'
aS'1610612748'
p54
aVF-C
p55
asS'1626159'
p56
(lp57
VJustise Winslow
p58
aS'20'
p59
aS'1610612748'
p60
aVF
asS'2365'
p61
(lp62
VChris Andersen
p63
aS'11'
p64
aS'1610612748'
p65
aVF-C
p66
asS'203105'
p67
(lp68
VFestus Ezeli
p69
aS'31'
p70
aS'1610612744'
p71
aVC
asS'202355'
p72
(lp73
VHassan Whiteside
p74
aS'21'
p75
aS'1610612748'
p76
aVC
asS'203084'
p77
(lp78
VHarrison Barnes
p79
aS'40'
p80
aS'1610612744'
p81
aVF
asS'101106'
p82
(lp83
VAndrew Bogut
p84
aS'12'
p85
aS'1610612744'
p86
aVC
asS'202691'
p87
(lp88
VKlay Thompson
p89
aS'11'
p90
aS'1610612744'
p91
aVG
asS'2571'
p92
(lp93
VLeandro Barbosa
p94
aS'19'
p95
aS'1610612744'
p96
aVG
asS'2757'
p97
(lp98
VBeno Udrih
p99
aS'19'
p100
aS'1610612748'
p101
aVG
asS'203546'
p102
(lp103
VIan Clark
p104
aS'21'
p105
aS'1610612744'
p106
aVG
asS'-1'
p107
(lp108
S'ball'
p109
aI-1
aI-1
aI-1
asS'201578'
p110
(lp111
VMarreese Speights
p112
aS'5'
aS'1610612744'
p113
aVF-C
p114
asS'201575'
p115
(lp116
VBrandon Rush
p117
aS'4'
aS'1610612744'
p118
aVF-G
p119
asS'201574'
p120
(lp121
VJason Thompson
p122
aS'1'
aS'1610612744'
p123
aVF-C
p124
asS'101123'
p125
(lp126
VGerald Green
p127
aS'14'
p128
aS'1610612748'
p129
aVF
as.